(i__main__
LossModule
p0
(dp1
S'D_loss'
p2
(lp3
F0.10404534637928009
aF0.005470443982630968
aF0.0010112080490216613
aF0.03167770057916641
aF0.004041437990963459
aF0.07719974964857101
aF0.04833231121301651
aF0.06898228824138641
aF0.023137718439102173
aF0.002430934924632311
aF0.10352573543787003
aF0.0031536880414932966
aF0.006229388061910868
aF0.015254851430654526
aF0.04141917824745178
aF0.01745680719614029
aF0.08800075203180313
aF0.10960293561220169
aF0.058807723224163055
aF0.09193424135446548
aF0.06191910058259964
aF0.06193268299102783
aF0.2663673460483551
aF0.11296265572309494
aF0.17354150116443634
aF0.23854494094848633
aF0.28698116540908813
aF0.08483133465051651
aF0.06262087821960449
aF0.09400086104869843
aF0.09933194518089294
aF0.049454301595687866
aF0.07089879363775253
aF0.1706487536430359
aF0.033697303384542465
aF0.295249342918396
aF0.19893375039100647
aF0.06415647268295288
aF0.3755883276462555
aF0.025324372574687004
aF0.01381507609039545
aF0.02470603585243225
aF0.6510974168777466
aF0.3702220916748047
aF0.055670518428087234
aF0.0148786511272192
aF0.08852437883615494
aF0.09603512287139893
aF0.2749382555484772
aF0.07735148817300797
aF0.12272663414478302
aF0.147446408867836
aF0.17108233273029327
aF0.09726554900407791
aF0.08353515714406967
aF0.21149101853370667
aF0.031015120446681976
aF0.05859882012009621
aF0.07993485033512115
aF0.01257301215082407
aF0.032149847596883774
aF0.05951033905148506
aF0.004264236427843571
aF0.02789882943034172
aF0.042439576238393784
aF0.04344597086310387
aF0.02336794137954712
aF0.05695270001888275
aF0.40635040402412415
aF0.09783472865819931
aF0.27804431319236755
aF0.09145272523164749
aF0.1901303082704544
aF0.17482034862041473
aF0.03839230537414551
aF0.09190413355827332
aF0.03675415366888046
aF0.06861400604248047
aF0.13141797482967377
aF0.02064887434244156
asS'G_loss'
p4
(lp5
F8.9083890914917
aF8.71654987335205
aF17.406980514526367
aF8.308331489562988
aF15.744468688964844
aF9.736763000488281
aF8.111167907714844
aF6.7933268547058105
aF11.293096542358398
aF8.095237731933594
aF15.505809783935547
aF15.614995956420898
aF9.504796028137207
aF7.549383163452148
aF9.890329360961914
aF8.657349586486816
aF8.311309814453125
aF7.6659016609191895
aF11.890268325805664
aF4.572978973388672
aF9.295358657836914
aF5.486533164978027
aF8.130233764648438
aF4.797149181365967
aF5.082613468170166
aF6.95888614654541
aF5.353063583374023
aF3.4169845581054688
aF6.66306734085083
aF3.4479317665100098
aF5.544424533843994
aF5.1402974128723145
aF4.419339656829834
aF5.164597511291504
aF7.490020275115967
aF4.6217803955078125
aF6.832000255584717
aF9.04628849029541
aF5.194267272949219
aF7.444858551025391
aF6.73972225189209
aF6.315881729125977
aF4.457261562347412
aF2.8541977405548096
aF7.400997638702393
aF7.097045421600342
aF6.861760139465332
aF7.605156898498535
aF5.884088516235352
aF5.547970294952393
aF8.213102340698242
aF5.853586673736572
aF5.017588138580322
aF6.841577053070068
aF5.338468074798584
aF2.0626676082611084
aF6.866240501403809
aF8.880648612976074
aF5.480377674102783
aF7.95706844329834
aF12.416513442993164
aF7.431460857391357
aF4.792119979858398
aF7.774810314178467
aF9.769235610961914
aF6.882167816162109
aF7.7448811531066895
aF7.233094692230225
aF3.7273757457733154
aF8.782255172729492
aF7.901551723480225
aF4.858349323272705
aF6.013925075531006
aF6.077941417694092
aF6.115227699279785
aF3.9743618965148926
aF6.073655128479004
aF5.151766777038574
aF5.949718952178955
aF6.521968841552734
asb.